target datalayout = "e-m:e-p270:32:32-p271:32:32-p272:64:64-i64:64-i128:128-f80:128-n8:16:32:64-S128"
target triple = "x86_64-pc-linux-gnu"

%struct._zend_executor_globals = type { %struct._zval_struct, %struct._zval_struct, [32 x ptr], ptr, ptr, %struct._zend_array, %struct._zend_array, ptr, i32, i32, ptr, ptr, ptr, ptr, ptr, ptr, i64, ptr, ptr, i32, i32, i64, i32, i32, i32, i8, i8, %struct.zend_atomic_bool_s, %struct.zend_atomic_bool_s, ptr, i64, ptr, ptr, %struct._zend_array, %struct._zend_array, i32, i8, %struct._zval_struct, %struct._zval_struct, %struct._zend_stack, %struct._zend_stack, %struct._zend_stack, ptr, i32, i32, i64, ptr, ptr, ptr, %struct._zend_objects_store, ptr, ptr, ptr, [3 x %struct._zend_op], ptr, i8, i8, i64, i32, i32, ptr, [16 x %struct._HashTableIterator], ptr, %union._zend_function, %struct._zend_op, %struct._zend_array, i64, %struct.zend_get_gc_buffer, ptr, ptr, ptr, i64, i8, i32, ptr, ptr, i64, %struct._zend_call_stack, i64, i64, [6 x ptr] }
%struct.zend_atomic_bool_s = type { i8 }
%struct._zval_struct = type { %union._zend_value, %union.anon, %union.anon.2 }
%union._zend_value = type { i64 }
%union.anon = type { i32 }
%union.anon.2 = type { i32 }
%struct._zend_stack = type { i32, i32, i32, ptr }
%struct._zend_objects_store = type { ptr, i32, i32, i32 }
%struct._HashTableIterator = type { ptr, i32, i32 }
%union._zend_function = type { %struct._zend_op_array }
%struct._zend_op_array = type { i8, [3 x i8], i32, ptr, ptr, ptr, i32, i32, ptr, ptr, ptr, ptr, i32, i32, i32, i32, ptr, ptr, ptr, ptr, ptr, i32, i32, ptr, ptr, ptr, i32, i32, i32, i32, ptr, ptr, [6 x ptr] }
%struct._zend_op = type { ptr, %union._znode_op, %union._znode_op, %union._znode_op, i32, i32, i8, i8, i8, i8 }
%union._znode_op = type { i32 }
%struct._zend_array = type { %struct._zend_refcounted_h, %union.anon.4, i32, %union.anon.6, i32, i32, i32, i32, i64, ptr }
%struct._zend_refcounted_h = type { i32, %union.anon.3 }
%union.anon.3 = type { i32 }
%union.anon.4 = type { i32 }
%union.anon.6 = type { ptr }
%struct.zend_get_gc_buffer = type { ptr, ptr, ptr }
%struct._zend_call_stack = type { ptr, i64 }
%struct._zend_ini_entry = type { ptr, ptr, ptr, ptr, ptr, ptr, ptr, ptr, i32, i8, i8, i8 }
%struct.__jmp_buf_tag = type { [8 x i64], i32, %struct.__sigset_t }
%struct.__sigset_t = type { [16 x i64] }

@executor_globals = external global %struct._zend_executor_globals, align 8

; Function Attrs: nounwind uwtable
define internal i32 @zend_restore_ini_entry_cb(ptr noundef %0, i32 noundef %1) #0 {
  %3 = alloca ptr, align 8
  %4 = alloca i32, align 4
  %5 = alloca i32, align 4
  %6 = alloca ptr, align 8
  %7 = alloca i32, align 4
  %8 = alloca ptr, align 8
  %9 = alloca i32, align 4
  %10 = alloca i32, align 4
  %11 = alloca ptr, align 8
  %12 = alloca [1 x %struct.__jmp_buf_tag], align 16
  store ptr %0, ptr %8, align 8
  store i32 %1, ptr %9, align 4
  store i32 -1, ptr %10, align 4
  %13 = load ptr, ptr %8, align 8
  %14 = getelementptr inbounds %struct._zend_ini_entry, ptr %13, i32 0, i32 11
  %15 = load i8, ptr %14, align 2
  %16 = icmp ne i8 %15, 0
  br i1 %16, label %17, label %115

17:                                               ; preds = %2
  %18 = load ptr, ptr %8, align 8
  %19 = getelementptr inbounds %struct._zend_ini_entry, ptr %18, i32 0, i32 1
  %20 = load ptr, ptr %19, align 8
  %21 = icmp ne ptr %20, null
  br i1 %21, label %22, label %48

22:                                               ; preds = %17
  %23 = load ptr, ptr getelementptr inbounds (%struct._zend_executor_globals, ptr @executor_globals, i32 0, i32 7), align 8
  store ptr %23, ptr %11, align 8
  store ptr %12, ptr getelementptr inbounds (%struct._zend_executor_globals, ptr @executor_globals, i32 0, i32 7), align 8
  %24 = getelementptr inbounds [1 x %struct.__jmp_buf_tag], ptr %12, i64 0, i64 0
  %25 = call i32 @__sigsetjmp(ptr noundef %24, i32 noundef 0) #14
  %26 = icmp eq i32 %25, 0
  br i1 %26, label %27, label %46

27:                                               ; preds = %22
  %28 = load ptr, ptr %8, align 8
  %29 = getelementptr inbounds %struct._zend_ini_entry, ptr %28, i32 0, i32 1
  %30 = load ptr, ptr %29, align 8
  %31 = load ptr, ptr %8, align 8
  %32 = load ptr, ptr %8, align 8
  %33 = getelementptr inbounds %struct._zend_ini_entry, ptr %32, i32 0, i32 6
  %34 = load ptr, ptr %33, align 8
  %35 = load ptr, ptr %8, align 8
  %36 = getelementptr inbounds %struct._zend_ini_entry, ptr %35, i32 0, i32 2
  %37 = load ptr, ptr %36, align 8
  %38 = load ptr, ptr %8, align 8
  %39 = getelementptr inbounds %struct._zend_ini_entry, ptr %38, i32 0, i32 3
  %40 = load ptr, ptr %39, align 8
  %41 = load ptr, ptr %8, align 8
  %42 = getelementptr inbounds %struct._zend_ini_entry, ptr %41, i32 0, i32 4
  %43 = load ptr, ptr %42, align 8
  %44 = load i32, ptr %9, align 4
  %45 = call i32 %30(ptr noundef %31, ptr noundef %34, ptr noundef %37, ptr noundef %40, ptr noundef %43, i32 noundef %44)
  store i32 %45, ptr %10, align 4
  br label %46

46:                                               ; preds = %27, %22
  %47 = load ptr, ptr %11, align 8
  store ptr %47, ptr getelementptr inbounds (%struct._zend_executor_globals, ptr @executor_globals, i32 0, i32 7), align 8
  br label %48

48:                                               ; preds = %46, %17
  %49 = load i32, ptr %9, align 4
  %50 = icmp eq i32 %49, 16
  br i1 %50, label %51, label %55

51:                                               ; preds = %48
  %52 = load i32, ptr %10, align 4
  %53 = icmp eq i32 %52, -1
  br i1 %53, label %54, label %55

54:                                               ; preds = %51
  store i32 -1, ptr %7, align 4
  br label %116

55:                                               ; preds = %51, %48
  %56 = load ptr, ptr %8, align 8
  %57 = getelementptr inbounds %struct._zend_ini_entry, ptr %56, i32 0, i32 5
  %58 = load ptr, ptr %57, align 8
  %59 = load ptr, ptr %8, align 8
  %60 = getelementptr inbounds %struct._zend_ini_entry, ptr %59, i32 0, i32 6
  %61 = load ptr, ptr %60, align 8
  %62 = icmp ne ptr %58, %61
  br i1 %62, label %63, label %98

63:                                               ; preds = %55
  %64 = load ptr, ptr %8, align 8
  %65 = getelementptr inbounds %struct._zend_ini_entry, ptr %64, i32 0, i32 5
  %66 = load ptr, ptr %65, align 8
  store ptr %66, ptr %6, align 8
  %67 = load ptr, ptr %6, align 8
  %68 = getelementptr inbounds %struct._zend_refcounted_h, ptr %67, i32 0, i32 1
  %69 = load i32, ptr %68, align 4
  store i32 %69, ptr %4, align 4
  %70 = load i32, ptr %4, align 4
  %71 = and i32 %70, 1008
  %72 = and i32 %71, 64
  %73 = icmp ne i32 %72, 0
  br i1 %73, label %97, label %74

74:                                               ; preds = %63
  %75 = load ptr, ptr %6, align 8
  store ptr %75, ptr %3, align 8
  %76 = load ptr, ptr %3, align 8
  %77 = load i32, ptr %76, align 4
  %78 = icmp ugt i32 %77, 0
  call void @llvm.assume(i1 %78)
  %79 = load ptr, ptr %3, align 8
  %80 = load i32, ptr %79, align 4
  %81 = add i32 %80, -1
  store i32 %81, ptr %79, align 4
  %82 = icmp eq i32 %81, 0
  br i1 %82, label %83, label %96

83:                                               ; preds = %74
  %84 = load ptr, ptr %6, align 8
  %85 = getelementptr inbounds %struct._zend_refcounted_h, ptr %84, i32 0, i32 1
  %86 = load i32, ptr %85, align 4
  store i32 %86, ptr %5, align 4
  %87 = load i32, ptr %5, align 4
  %88 = and i32 %87, 1008
  %89 = and i32 %88, 128
  %90 = icmp ne i32 %89, 0
  br i1 %90, label %91, label %93

91:                                               ; preds = %83
  %92 = load ptr, ptr %6, align 8
  call void @free(ptr noundef %92) #13
  br label %95

93:                                               ; preds = %83
  %94 = load ptr, ptr %6, align 8
  call void @_efree(ptr noundef %94) #13
  br label %95

95:                                               ; preds = %93, %91
  br label %96

96:                                               ; preds = %95, %74
  br label %97

97:                                               ; preds = %96, %63
  br label %98

98:                                               ; preds = %97, %55
  %99 = load ptr, ptr %8, align 8
  %100 = getelementptr inbounds %struct._zend_ini_entry, ptr %99, i32 0, i32 6
  %101 = load ptr, ptr %100, align 8
  %102 = load ptr, ptr %8, align 8
  %103 = getelementptr inbounds %struct._zend_ini_entry, ptr %102, i32 0, i32 5
  store ptr %101, ptr %103, align 8
  %104 = load ptr, ptr %8, align 8
  %105 = getelementptr inbounds %struct._zend_ini_entry, ptr %104, i32 0, i32 10
  %106 = load i8, ptr %105, align 1
  %107 = load ptr, ptr %8, align 8
  %108 = getelementptr inbounds %struct._zend_ini_entry, ptr %107, i32 0, i32 9
  store i8 %106, ptr %108, align 4
  %109 = load ptr, ptr %8, align 8
  %110 = getelementptr inbounds %struct._zend_ini_entry, ptr %109, i32 0, i32 11
  store i8 0, ptr %110, align 2
  %111 = load ptr, ptr %8, align 8
  %112 = getelementptr inbounds %struct._zend_ini_entry, ptr %111, i32 0, i32 6
  store ptr null, ptr %112, align 8
  %113 = load ptr, ptr %8, align 8
  %114 = getelementptr inbounds %struct._zend_ini_entry, ptr %113, i32 0, i32 10
  store i8 0, ptr %114, align 1
  br label %115

115:                                              ; preds = %98, %2
  store i32 0, ptr %7, align 4
  br label %116

116:                                              ; preds = %115, %54
  %117 = load i32, ptr %7, align 4
  ret i32 %117
}