; Function Attrs: nounwind uwtable
define internal fastcc noundef i32 @zend_restore_ini_entry_cb(ptr noundef %0, i32 noundef %1) unnamed_addr #0 {
  %3 = alloca [1 x %struct.__jmp_buf_tag], align 16
  %4 = getelementptr inbounds i8, ptr %0, i64 70
  %5 = load i8, ptr %4, align 2
  %.not = icmp eq i8 %5, 0
  br i1 %.not, label %51, label %6

6:                                                ; preds = %2
  %7 = getelementptr inbounds i8, ptr %0, i64 8
  %8 = load ptr, ptr %7, align 8
  %.not34 = icmp eq ptr %8, null
  br i1 %.not34, label %26, label %9

9:                                                ; preds = %6
  %10 = load ptr, ptr getelementptr inbounds (%struct._zend_executor_globals, ptr @executor_globals, i64 0, i32 7), align 8
  store ptr %3, ptr getelementptr inbounds (%struct._zend_executor_globals, ptr @executor_globals, i64 0, i32 7), align 8
  %11 = call i32 @__sigsetjmp(ptr noundef nonnull %3, i32 noundef 0) #21
  %12 = icmp eq i32 %11, 0
  br i1 %12, label %13, label %25

13:                                               ; preds = %9
  %14 = load ptr, ptr %7, align 8
  %15 = getelementptr inbounds i8, ptr %0, i64 48
  %16 = load ptr, ptr %15, align 8
  %17 = getelementptr inbounds i8, ptr %0, i64 16
  %18 = load ptr, ptr %17, align 8
  %19 = getelementptr inbounds i8, ptr %0, i64 24
  %20 = load ptr, ptr %19, align 8
  %21 = getelementptr inbounds i8, ptr %0, i64 32
  %22 = load ptr, ptr %21, align 8
  %23 = call i32 %14(ptr noundef nonnull %0, ptr noundef %16, ptr noundef %18, ptr noundef %20, ptr noundef %22, i32 noundef %1) #20
  %24 = icmp eq i32 %23, -1
  br label %25

25:                                               ; preds = %13, %9
  %.032 = phi i1 [ %24, %13 ], [ true, %9 ]
  store ptr %10, ptr getelementptr inbounds (%struct._zend_executor_globals, ptr @executor_globals, i64 0, i32 7), align 8
  br label %26

26:                                               ; preds = %25, %6
  %.1 = phi i1 [ %.032, %25 ], [ true, %6 ]
  %27 = icmp eq i32 %1, 16
  %or.cond = select i1 %27, i1 %.1, i1 false
  br i1 %or.cond, label %51, label %28

28:                                               ; preds = %26
  %29 = getelementptr inbounds i8, ptr %0, i64 40
  %30 = load ptr, ptr %29, align 8
  %31 = getelementptr inbounds i8, ptr %0, i64 48
  %32 = load ptr, ptr %31, align 8
  %.not35 = icmp eq ptr %30, %32
  br i1 %.not35, label %46, label %33

33:                                               ; preds = %28
  %34 = getelementptr inbounds i8, ptr %30, i64 4
  %35 = load i32, ptr %34, align 4
  %36 = and i32 %35, 64
  %.not36 = icmp eq i32 %36, 0
  br i1 %.not36, label %37, label %46

37:                                               ; preds = %33
  %38 = load i32, ptr %30, align 4
  %39 = icmp ne i32 %38, 0
  call void @llvm.assume(i1 %39)
  %40 = add i32 %38, -1
  store i32 %40, ptr %30, align 4
  %41 = icmp eq i32 %40, 0
  br i1 %41, label %42, label %46

42:                                               ; preds = %37
  %43 = and i32 %35, 128
  %.not37 = icmp eq i32 %43, 0
  br i1 %.not37, label %45, label %44

44:                                               ; preds = %42
  call void @free(ptr noundef nonnull %30) #20
  br label %46

45:                                               ; preds = %42
  call void @_efree(ptr noundef nonnull %30) #20
  br label %46

46:                                               ; preds = %33, %44, %45, %37, %28
  %47 = load ptr, ptr %31, align 8
  store ptr %47, ptr %29, align 8
  %48 = getelementptr inbounds i8, ptr %0, i64 69
  %49 = load i8, ptr %48, align 1
  %50 = getelementptr inbounds i8, ptr %0, i64 68
  store i8 %49, ptr %50, align 4
  store i8 0, ptr %4, align 2
  store ptr null, ptr %31, align 8
  store i8 0, ptr %48, align 1
  br label %51

51:                                               ; preds = %2, %46, %26
  %.0 = phi i32 [ -1, %26 ], [ 0, %46 ], [ 0, %2 ]
  ret i32 %.0
}